target datalayout = "e-m:e-p270:32:32-p271:32:32-p272:64:64-i64:64-i128:128-f80:128-n8:16:32:64-S128"
target triple = "x86_64-pc-linux-gnu"

%struct.dump_arg = type { i64, i64, ptr, ptr, ptr, ptr, i64 }
%struct.OnigEncodingTypeST = type { ptr, ptr, i32, i32, ptr, ptr, ptr, ptr, ptr, ptr, ptr, ptr, ptr, ptr, ptr, ptr, ptr, i32, i32 }

; Function Attrs: inlinehint nounwind sspstrong uwtable
define internal ptr @rb_enc_name(ptr noundef %0) #5 {
  %2 = alloca ptr, align 8
  store ptr %0, ptr %2, align 8, !tbaa !101
  %3 = load ptr, ptr %2, align 8, !tbaa !101
  %4 = getelementptr inbounds nuw %struct.OnigEncodingTypeST, ptr %3, i32 0, i32 1
  %5 = load ptr, ptr %4, align 8, !tbaa !122
  ret ptr %5
}

; Function Attrs: nounwind sspstrong uwtable
define internal i64 @encoding_name(i64 noundef %0, ptr noundef %1) #0 {
  %3 = alloca i64, align 8
  %4 = alloca i64, align 8
  %5 = alloca ptr, align 8
  %6 = alloca i32, align 4
  %7 = alloca ptr, align 8
  %8 = alloca i64, align 8
  %9 = alloca i32, align 4
  store i64 %0, ptr %4, align 8, !tbaa !7
  store ptr %1, ptr %5, align 8, !tbaa !39
  %10 = load i64, ptr %4, align 8, !tbaa !7
  %11 = call i32 @rb_enc_capable(i64 noundef %10) #27
  %12 = icmp ne i32 %11, 0
  br i1 %12, label %13, label %65

13:                                               ; preds = %2
  call void @llvm.lifetime.start.p0(i64 4, ptr %6) #23
  %14 = load i64, ptr %4, align 8, !tbaa !7
  %15 = call i32 @rb_enc_get_index(i64 noundef %14)
  store i32 %15, ptr %6, align 4, !tbaa !22
  call void @llvm.lifetime.start.p0(i64 8, ptr %7) #23
  store ptr null, ptr %7, align 8, !tbaa !101
  call void @llvm.lifetime.start.p0(i64 8, ptr %8) #23
  %16 = load i32, ptr %6, align 4, !tbaa !22
  %17 = icmp sle i32 %16, 0
  br i1 %17, label %22, label %18

18:                                               ; preds = %13
  %19 = load i32, ptr %6, align 4, !tbaa !22
  %20 = call ptr @rb_enc_from_index(i32 noundef %19)
  store ptr %20, ptr %7, align 8, !tbaa !101
  %21 = icmp ne ptr %20, null
  br i1 %21, label %23, label %22

22:                                               ; preds = %18, %13
  store i64 4, ptr %3, align 8
  store i32 1, ptr %9, align 4
  br label %64

23:                                               ; preds = %18
  %24 = load i32, ptr %6, align 4, !tbaa !22
  %25 = icmp eq i32 %24, 2
  br i1 %25, label %26, label %27

26:                                               ; preds = %23
  store i64 0, ptr %3, align 8
  store i32 1, ptr %9, align 4
  br label %64

27:                                               ; preds = %23
  %28 = load i32, ptr %6, align 4, !tbaa !22
  %29 = icmp eq i32 %28, 1
  br i1 %29, label %30, label %31

30:                                               ; preds = %27
  store i64 20, ptr %3, align 8
  store i32 1, ptr %9, align 4
  br label %64

31:                                               ; preds = %27
  br label %32

32:                                               ; preds = %31
  %33 = load ptr, ptr %5, align 8, !tbaa !39
  %34 = getelementptr inbounds nuw %struct.dump_arg, ptr %33, i32 0, i32 5
  %35 = load ptr, ptr %34, align 8, !tbaa !47
  %36 = icmp ne ptr %35, null
  br i1 %36, label %37, label %46

37:                                               ; preds = %32
  %38 = load ptr, ptr %5, align 8, !tbaa !39
  %39 = getelementptr inbounds nuw %struct.dump_arg, ptr %38, i32 0, i32 5
  %40 = load ptr, ptr %39, align 8, !tbaa !47
  %41 = load ptr, ptr %7, align 8, !tbaa !101
  %42 = call ptr @rb_enc_name(ptr noundef %41)
  %43 = ptrtoint ptr %42 to i64
  %44 = call i32 @rb_st_lookup(ptr noundef %40, i64 noundef %43, ptr noundef %8)
  %45 = icmp ne i32 %44, 0
  br i1 %45, label %62, label %50

46:                                               ; preds = %32
  %47 = call ptr @rb_st_init_strcasetable()
  %48 = load ptr, ptr %5, align 8, !tbaa !39
  %49 = getelementptr inbounds nuw %struct.dump_arg, ptr %48, i32 0, i32 5
  store ptr %47, ptr %49, align 8, !tbaa !47
  br i1 true, label %50, label %62

50:                                               ; preds = %46, %37
  %51 = load ptr, ptr %7, align 8, !tbaa !101
  %52 = call ptr @rb_enc_name(ptr noundef %51)
  %53 = call i64 @rb_str_new_cstr(ptr noundef %52)
  store i64 %53, ptr %8, align 8, !tbaa !7
  %54 = load ptr, ptr %5, align 8, !tbaa !39
  %55 = getelementptr inbounds nuw %struct.dump_arg, ptr %54, i32 0, i32 5
  %56 = load ptr, ptr %55, align 8, !tbaa !47
  %57 = load ptr, ptr %7, align 8, !tbaa !101
  %58 = call ptr @rb_enc_name(ptr noundef %57)
  %59 = ptrtoint ptr %58 to i64
  %60 = load i64, ptr %8, align 8, !tbaa !7
  %61 = call i32 @rb_st_insert(ptr noundef %56, i64 noundef %59, i64 noundef %60)
  br label %62

62:                                               ; preds = %50, %46, %37
  %63 = load i64, ptr %8, align 8, !tbaa !7
  store i64 %63, ptr %3, align 8
  store i32 1, ptr %9, align 4
  br label %64

64:                                               ; preds = %62, %30, %26, %22
  call void @llvm.lifetime.end.p0(i64 8, ptr %8) #23
  call void @llvm.lifetime.end.p0(i64 8, ptr %7) #23
  call void @llvm.lifetime.end.p0(i64 4, ptr %6) #23
  br label %66

65:                                               ; preds = %2
  store i64 4, ptr %3, align 8
  br label %66

66:                                               ; preds = %65, %64
  %67 = load i64, ptr %3, align 8
  ret i64 %67
}