; Function Attrs: nounwind sspstrong uwtable
define internal fastcc i64 @encoding_name(i64 noundef %0, ptr noundef captures(none) %1) unnamed_addr #0 {
  %3 = alloca i64, align 8
  %4 = tail call i32 @rb_enc_capable(i64 noundef %0) #27
  %.not = icmp eq i32 %4, 0
  br i1 %.not, label %30, label %5

5:                                                ; preds = %2
  %6 = tail call i32 @rb_enc_get_index(i64 noundef %0) #22
  call void @llvm.lifetime.start.p0(i64 8, ptr nonnull %3) #22
  %7 = icmp slt i32 %6, 1
  br i1 %7, label %29, label %8

8:                                                ; preds = %5
  %9 = tail call ptr @rb_enc_from_index(i32 noundef %6) #22
  %.not16 = icmp eq ptr %9, null
  br i1 %.not16, label %29, label %10

10:                                               ; preds = %8
  switch i32 %6, label %12 [
    i32 2, label %29
    i32 1, label %11
  ]

11:                                               ; preds = %10
  br label %29

12:                                               ; preds = %10
  %13 = getelementptr inbounds nuw i8, ptr %1, i64 40
  %14 = load ptr, ptr %13, align 8, !tbaa !45
  %.not17 = icmp eq ptr %14, null
  br i1 %.not17, label %19, label %15

15:                                               ; preds = %12
  %16 = getelementptr i8, ptr %9, i64 8
  %.val = load ptr, ptr %16, align 8, !tbaa !119
  %17 = ptrtoint ptr %.val to i64
  %18 = call i32 @rb_st_lookup(ptr noundef nonnull %14, i64 noundef %17, ptr noundef nonnull %3) #22
  %.not18 = icmp eq i32 %18, 0
  br i1 %.not18, label %21, label %27

19:                                               ; preds = %12
  %20 = tail call ptr @rb_st_init_strcasetable() #22
  store ptr %20, ptr %13, align 8, !tbaa !45
  br label %21

21:                                               ; preds = %19, %15
  %22 = getelementptr i8, ptr %9, i64 8
  %.val19 = load ptr, ptr %22, align 8, !tbaa !119
  %23 = call i64 @rb_str_new_cstr(ptr noundef %.val19) #22
  store i64 %23, ptr %3, align 8, !tbaa !7
  %24 = load ptr, ptr %13, align 8, !tbaa !45
  %.val20 = load ptr, ptr %22, align 8, !tbaa !119
  %25 = ptrtoint ptr %.val20 to i64
  %26 = call i32 @rb_st_insert(ptr noundef %24, i64 noundef %25, i64 noundef %23) #22
  br label %27

27:                                               ; preds = %21, %15
  %28 = load i64, ptr %3, align 8, !tbaa !7
  br label %29

29:                                               ; preds = %10, %5, %8, %27, %11
  %.0 = phi i64 [ 20, %11 ], [ %28, %27 ], [ 4, %8 ], [ 4, %5 ], [ 0, %10 ]
  call void @llvm.lifetime.end.p0(i64 8, ptr nonnull %3) #22
  br label %30

30:                                               ; preds = %2, %29
  %.1 = phi i64 [ %.0, %29 ], [ 4, %2 ]
  ret i64 %.1
}